target datalayout = "e-m:e-p270:32:32-p271:32:32-p272:64:64-i64:64-i128:128-f80:128-n8:16:32:64-S128"
target triple = "x86_64-pc-linux-gnu"

%struct.except_id_t = type { i64, i64 }
%struct.except_stacknode = type { ptr, i32, %union.anon }
%union.anon = type { ptr }
%struct.except_catch = type { ptr, i64, %struct.except_t, [1 x %struct.__jmp_buf_tag] }
%struct.except_t = type { %struct.except_id_t, ptr, ptr }
%struct.__jmp_buf_tag = type { [8 x i64], i32, %struct.__sigset_t }
%struct.__sigset_t = type { [16 x i64] }

@dissect_ntlmssp_payload_only.catch_spec = internal constant [1 x %struct.except_id_t] [%struct.except_id_t { i64 1, i64 0 }], align 16

; Function Attrs: null_pointer_is_valid sspstrong uwtable
define internal i32 @dissect_ntlmssp_payload_only(ptr noundef %0, ptr noundef %1, ptr noundef %2, ptr noundef %3) #0 {
  %5 = alloca ptr, align 8
  %6 = alloca ptr, align 8
  %7 = alloca ptr, align 8
  %8 = alloca ptr, align 8
  %9 = alloca i32, align 4
  %10 = alloca ptr, align 8
  %11 = alloca i32, align 4
  %12 = alloca ptr, align 8
  %13 = alloca ptr, align 8
  %14 = alloca ptr, align 8
  %15 = alloca i32, align 4
  %16 = alloca %struct.except_stacknode, align 8
  %17 = alloca %struct.except_catch, align 8
  store ptr %0, ptr %5, align 8
  store ptr %1, ptr %6, align 8
  store ptr %2, ptr %7, align 8
  store ptr %3, ptr %8, align 8
  call void @llvm.lifetime.start.p0(i64 4, ptr %9) #17
  store volatile i32 0, ptr %9, align 4
  call void @llvm.lifetime.start.p0(i64 8, ptr %10) #17
  store volatile ptr null, ptr %10, align 8
  call void @llvm.lifetime.start.p0(i64 4, ptr %11) #17
  call void @llvm.lifetime.start.p0(i64 8, ptr %12) #17
  call void @llvm.lifetime.start.p0(i64 8, ptr %13) #17
  %18 = load ptr, ptr %8, align 8
  store ptr %18, ptr %13, align 8
  %19 = load ptr, ptr %13, align 8
  %20 = icmp ne ptr %19, null
  br i1 %20, label %21, label %23

21:                                               ; preds = %4
  %22 = load ptr, ptr %13, align 8
  store ptr null, ptr %22, align 8
  br label %23

23:                                               ; preds = %21, %4
  %24 = load ptr, ptr %5, align 8
  %25 = call i32 @tvb_captured_length(ptr noundef %24)
  store i32 %25, ptr %11, align 4
  call void @llvm.lifetime.start.p0(i64 8, ptr %14) #17
  call void @llvm.lifetime.start.p0(i64 4, ptr %15) #17
  store volatile i32 0, ptr %15, align 4
  call void @llvm.lifetime.start.p0(i64 24, ptr %16) #17
  call void @llvm.lifetime.start.p0(i64 248, ptr %17) #17
  call void @except_setup_try(ptr noundef %16, ptr noundef %17, ptr noundef @dissect_ntlmssp_payload_only.catch_spec, i64 noundef 1)
  %26 = getelementptr inbounds nuw %struct.except_catch, ptr %17, i32 0, i32 3
  %27 = getelementptr inbounds [1 x %struct.__jmp_buf_tag], ptr %26, i64 0, i64 0
  %28 = call i32 @_setjmp(ptr noundef %27) #21
  %29 = icmp ne i32 %28, 0
  br i1 %29, label %30, label %32

30:                                               ; preds = %23
  %31 = getelementptr inbounds nuw %struct.except_catch, ptr %17, i32 0, i32 2
  store volatile ptr %31, ptr %14, align 8
  br label %33

32:                                               ; preds = %23
  store volatile ptr null, ptr %14, align 8
  br label %33

33:                                               ; preds = %32, %30
  %34 = load volatile i32, ptr %15, align 4
  %35 = and i32 %34, 1
  %36 = icmp ne i32 %35, 0
  br i1 %36, label %37, label %40

37:                                               ; preds = %33
  %38 = load volatile i32, ptr %15, align 4
  %39 = or i32 %38, 2
  store volatile i32 %39, ptr %15, align 4
  br label %40

40:                                               ; preds = %37, %33
  %41 = load volatile i32, ptr %15, align 4
  %42 = and i32 %41, -2
  store volatile i32 %42, ptr %15, align 4
  %43 = load volatile i32, ptr %15, align 4
  %44 = icmp eq i32 %43, 0
  br i1 %44, label %45, label %61

45:                                               ; preds = %40
  %46 = load volatile ptr, ptr %14, align 8
  %47 = icmp eq ptr %46, null
  br i1 %47, label %48, label %61

48:                                               ; preds = %45
  %49 = load ptr, ptr %5, align 8
  %50 = load volatile i32, ptr %9, align 4
  %51 = load i32, ptr %11, align 4
  %52 = load ptr, ptr %6, align 8
  %53 = load volatile ptr, ptr %10, align 8
  %54 = call ptr @decrypt_data_payload(ptr noundef %49, i32 noundef %50, i32 noundef %51, ptr noundef %52, ptr noundef %53, ptr noundef null)
  store volatile ptr %54, ptr %12, align 8
  %55 = load ptr, ptr %13, align 8
  %56 = icmp ne ptr %55, null
  br i1 %56, label %57, label %60

57:                                               ; preds = %48
  %58 = load volatile ptr, ptr %12, align 8
  %59 = load ptr, ptr %13, align 8
  store ptr %58, ptr %59, align 8
  br label %60

60:                                               ; preds = %57, %48
  br label %61

61:                                               ; preds = %60, %45, %40
  %62 = load volatile i32, ptr %15, align 4
  %63 = icmp eq i32 %62, 0
  br i1 %63, label %64, label %106

64:                                               ; preds = %61
  %65 = load volatile ptr, ptr %14, align 8
  %66 = icmp ne ptr %65, null
  br i1 %66, label %67, label %106

67:                                               ; preds = %64
  %68 = load volatile ptr, ptr %14, align 8
  %69 = getelementptr inbounds nuw %struct.except_t, ptr %68, i32 0, i32 0
  %70 = getelementptr inbounds nuw %struct.except_id_t, ptr %69, i32 0, i32 1
  %71 = load volatile i64, ptr %70, align 8
  %72 = icmp eq i64 %71, 3
  br i1 %72, label %91, label %73

73:                                               ; preds = %67
  %74 = load volatile ptr, ptr %14, align 8
  %75 = getelementptr inbounds nuw %struct.except_t, ptr %74, i32 0, i32 0
  %76 = getelementptr inbounds nuw %struct.except_id_t, ptr %75, i32 0, i32 1
  %77 = load volatile i64, ptr %76, align 8
  %78 = icmp eq i64 %77, 2
  br i1 %78, label %91, label %79

79:                                               ; preds = %73
  %80 = load volatile ptr, ptr %14, align 8
  %81 = getelementptr inbounds nuw %struct.except_t, ptr %80, i32 0, i32 0
  %82 = getelementptr inbounds nuw %struct.except_id_t, ptr %81, i32 0, i32 1
  %83 = load volatile i64, ptr %82, align 8
  %84 = icmp eq i64 %83, 7
  br i1 %84, label %91, label %85

85:                                               ; preds = %79
  %86 = load volatile ptr, ptr %14, align 8
  %87 = getelementptr inbounds nuw %struct.except_t, ptr %86, i32 0, i32 0
  %88 = getelementptr inbounds nuw %struct.except_id_t, ptr %87, i32 0, i32 1
  %89 = load volatile i64, ptr %88, align 8
  %90 = icmp eq i64 %89, 9
  br i1 %90, label %91, label %106

91:                                               ; preds = %85, %79, %73, %67
  %92 = load volatile i32, ptr %15, align 4
  %93 = or i32 %92, 1
  store volatile i32 %93, ptr %15, align 4
  %94 = icmp ne i32 %93, 0
  br i1 %94, label %95, label %106

95:                                               ; preds = %91
  %96 = load ptr, ptr %5, align 8
  %97 = load ptr, ptr %6, align 8
  %98 = load ptr, ptr %7, align 8
  %99 = load volatile ptr, ptr %14, align 8
  %100 = getelementptr inbounds nuw %struct.except_t, ptr %99, i32 0, i32 0
  %101 = getelementptr inbounds nuw %struct.except_id_t, ptr %100, i32 0, i32 1
  %102 = load volatile i64, ptr %101, align 8
  %103 = load volatile ptr, ptr %14, align 8
  %104 = getelementptr inbounds nuw %struct.except_t, ptr %103, i32 0, i32 1
  %105 = load volatile ptr, ptr %104, align 8
  call void @show_exception(ptr noundef %96, ptr noundef %97, ptr noundef %98, i64 noundef %102, ptr noundef %105)
  br label %106

106:                                              ; preds = %95, %91, %85, %64, %61
  %107 = load volatile i32, ptr %15, align 4
  %108 = and i32 %107, 1
  %109 = icmp ne i32 %108, 0
  br i1 %109, label %115, label %110

110:                                              ; preds = %106
  %111 = load volatile ptr, ptr %14, align 8
  %112 = icmp ne ptr %111, null
  br i1 %112, label %113, label %115

113:                                              ; preds = %110
  %114 = load volatile ptr, ptr %14, align 8
  call void @except_rethrow(ptr noundef %114) #22
  unreachable

115:                                              ; preds = %110, %106
  %116 = getelementptr inbounds nuw %struct.except_catch, ptr %17, i32 0, i32 2
  %117 = getelementptr inbounds nuw %struct.except_t, ptr %116, i32 0, i32 2
  %118 = load volatile ptr, ptr %117, align 8
  call void @except_free(ptr noundef %118)
  %119 = call ptr @except_pop()
  call void @llvm.lifetime.end.p0(i64 248, ptr %17) #17
  call void @llvm.lifetime.end.p0(i64 24, ptr %16) #17
  call void @llvm.lifetime.end.p0(i64 4, ptr %15) #17
  call void @llvm.lifetime.end.p0(i64 8, ptr %14) #17
  %120 = load volatile i32, ptr %9, align 4
  call void @llvm.lifetime.end.p0(i64 8, ptr %13) #17
  call void @llvm.lifetime.end.p0(i64 8, ptr %12) #17
  call void @llvm.lifetime.end.p0(i64 4, ptr %11) #17
  call void @llvm.lifetime.end.p0(i64 8, ptr %10) #17
  call void @llvm.lifetime.end.p0(i64 4, ptr %9) #17
  ret i32 %120
}