; Function Attrs: null_pointer_is_valid sspstrong uwtable
define internal i32 @dissect_ntlmssp_payload_only(ptr noundef %0, ptr noundef %1, ptr noundef %2, ptr noundef writeonly captures(address_is_null) %3) #0 {
  %5 = alloca i32, align 4
  %6 = alloca ptr, align 8
  %7 = alloca ptr, align 8
  %8 = alloca ptr, align 8
  %9 = alloca i32, align 4
  %10 = alloca %struct.except_stacknode, align 8
  %11 = alloca %struct.except_catch, align 8
  call void @llvm.lifetime.start.p0(i64 4, ptr nonnull %5)
  store volatile i32 0, ptr %5, align 4
  call void @llvm.lifetime.start.p0(i64 8, ptr nonnull %6)
  store volatile ptr null, ptr %6, align 8
  call void @llvm.lifetime.start.p0(i64 8, ptr nonnull %7)
  %.not = icmp eq ptr %3, null
  br i1 %.not, label %13, label %12

12:                                               ; preds = %4
  store ptr null, ptr %3, align 8
  br label %13

13:                                               ; preds = %12, %4
  %14 = call i32 @tvb_captured_length(ptr noundef %0)
  call void @llvm.lifetime.start.p0(i64 8, ptr nonnull %8)
  call void @llvm.lifetime.start.p0(i64 4, ptr nonnull %9)
  store volatile i32 0, ptr %9, align 4
  call void @llvm.lifetime.start.p0(i64 24, ptr nonnull %10) #17
  call void @llvm.lifetime.start.p0(i64 248, ptr nonnull %11) #17
  call void @except_setup_try(ptr noundef nonnull %10, ptr noundef nonnull %11, ptr noundef nonnull @dissect_ntlmssp_payload_only.catch_spec, i64 noundef 1)
  %15 = getelementptr inbounds nuw i8, ptr %11, i64 48
  %16 = call i32 @_setjmp(ptr noundef nonnull %15) #21
  %.not32 = icmp eq i32 %16, 0
  %17 = getelementptr inbounds nuw i8, ptr %11, i64 16
  %.sink = select i1 %.not32, ptr null, ptr %17
  store volatile ptr %.sink, ptr %8, align 8
  %.0..0..0..0. = load volatile i32, ptr %9, align 4
  %18 = and i32 %.0..0..0..0., 1
  %.not33 = icmp eq i32 %18, 0
  br i1 %.not33, label %21, label %19

19:                                               ; preds = %13
  %.0..0..0..0.1 = load volatile i32, ptr %9, align 4
  %20 = or i32 %.0..0..0..0.1, 2
  store volatile i32 %20, ptr %9, align 4
  br label %21

21:                                               ; preds = %19, %13
  %.0..0..0..0.2 = load volatile i32, ptr %9, align 4
  %22 = and i32 %.0..0..0..0.2, -2
  store volatile i32 %22, ptr %9, align 4
  %.0..0..0..0.3 = load volatile i32, ptr %9, align 4
  %23 = icmp eq i32 %.0..0..0..0.3, 0
  br i1 %23, label %24, label %29

24:                                               ; preds = %21
  %.0..0..0..0.7 = load volatile ptr, ptr %8, align 8
  %25 = icmp eq ptr %.0..0..0..0.7, null
  br i1 %25, label %26, label %29

26:                                               ; preds = %24
  %.0..0..0..0.23 = load volatile i32, ptr %5, align 4
  %.0..0..0..0.22 = load volatile ptr, ptr %6, align 8
  %27 = call fastcc ptr @decrypt_data_payload(ptr noundef %0, i32 noundef %.0..0..0..0.23, i32 noundef %14, ptr noundef %1, ptr noundef null)
  store volatile ptr %27, ptr %7, align 8
  br i1 %.not, label %29, label %28

28:                                               ; preds = %26
  %.0..0..0..0.21 = load volatile ptr, ptr %7, align 8
  store ptr %.0..0..0..0.21, ptr %3, align 8
  br label %29

29:                                               ; preds = %26, %28, %24, %21
  %.0..0..0..0.4 = load volatile i32, ptr %9, align 4
  %30 = icmp eq i32 %.0..0..0..0.4, 0
  br i1 %30, label %31, label %54

31:                                               ; preds = %29
  %.0..0..0..0.8 = load volatile ptr, ptr %8, align 8
  %.not34 = icmp eq ptr %.0..0..0..0.8, null
  br i1 %.not34, label %54, label %32

32:                                               ; preds = %31
  %.0..0..0..0.9 = load volatile ptr, ptr %8, align 8
  %33 = getelementptr inbounds nuw i8, ptr %.0..0..0..0.9, i64 8
  %34 = load volatile i64, ptr %33, align 8
  %35 = icmp eq i64 %34, 3
  br i1 %35, label %48, label %36

36:                                               ; preds = %32
  %.0..0..0..0.10 = load volatile ptr, ptr %8, align 8
  %37 = getelementptr inbounds nuw i8, ptr %.0..0..0..0.10, i64 8
  %38 = load volatile i64, ptr %37, align 8
  %39 = icmp eq i64 %38, 2
  br i1 %39, label %48, label %40

40:                                               ; preds = %36
  %.0..0..0..0.11 = load volatile ptr, ptr %8, align 8
  %41 = getelementptr inbounds nuw i8, ptr %.0..0..0..0.11, i64 8
  %42 = load volatile i64, ptr %41, align 8
  %43 = icmp eq i64 %42, 7
  br i1 %43, label %48, label %44

44:                                               ; preds = %40
  %.0..0..0..0.12 = load volatile ptr, ptr %8, align 8
  %45 = getelementptr inbounds nuw i8, ptr %.0..0..0..0.12, i64 8
  %46 = load volatile i64, ptr %45, align 8
  %47 = icmp eq i64 %46, 9
  br i1 %47, label %48, label %54

48:                                               ; preds = %44, %40, %36, %32
  %.0..0..0..0.5 = load volatile i32, ptr %9, align 4
  %49 = or i32 %.0..0..0..0.5, 1
  store volatile i32 %49, ptr %9, align 4
  %.0..0..0..0.13 = load volatile ptr, ptr %8, align 8
  %50 = getelementptr inbounds nuw i8, ptr %.0..0..0..0.13, i64 8
  %51 = load volatile i64, ptr %50, align 8
  %.0..0..0..0.14 = load volatile ptr, ptr %8, align 8
  %52 = getelementptr inbounds nuw i8, ptr %.0..0..0..0.14, i64 16
  %53 = load volatile ptr, ptr %52, align 8
  call void @show_exception(ptr noundef %0, ptr noundef %1, ptr noundef %2, i64 noundef %51, ptr noundef %53)
  br label %54

54:                                               ; preds = %48, %44, %31, %29
  %.0..0..0..0.6 = load volatile i32, ptr %9, align 4
  %55 = and i32 %.0..0..0..0.6, 1
  %.not35 = icmp eq i32 %55, 0
  br i1 %.not35, label %56, label %58

56:                                               ; preds = %54
  %.0..0..0..0.15 = load volatile ptr, ptr %8, align 8
  %.not36 = icmp eq ptr %.0..0..0..0.15, null
  br i1 %.not36, label %58, label %57

57:                                               ; preds = %56
  %.0..0..0..0.16 = load volatile ptr, ptr %8, align 8
  call void @except_rethrow(ptr noundef %.0..0..0..0.16) #22
  unreachable

58:                                               ; preds = %56, %54
  %59 = getelementptr inbounds nuw i8, ptr %11, i64 40
  %60 = load volatile ptr, ptr %59, align 8
  call void @except_free(ptr noundef %60)
  %61 = call ptr @except_pop()
  call void @llvm.lifetime.end.p0(i64 248, ptr nonnull %11) #17
  call void @llvm.lifetime.end.p0(i64 24, ptr nonnull %10) #17
  call void @llvm.lifetime.end.p0(i64 4, ptr nonnull %9)
  call void @llvm.lifetime.end.p0(i64 8, ptr nonnull %8)
  %.0..0..0..0.24 = load volatile i32, ptr %5, align 4
  call void @llvm.lifetime.end.p0(i64 8, ptr nonnull %7)
  call void @llvm.lifetime.end.p0(i64 8, ptr nonnull %6)
  call void @llvm.lifetime.end.p0(i64 4, ptr nonnull %5)
  ret i32 %.0..0..0..0.24
}